target datalayout = "e-m:e-p270:32:32-p271:32:32-p272:64:64-i64:64-i128:128-f80:128-n8:16:32:64-S128"
target triple = "x86_64-pc-linux-gnu"

; Function Attrs: nounwind uwtable
define internal i32 @dsa_pkey_ctrl(ptr noundef %0, i32 noundef %1, i64 noundef %2, ptr noundef %3) #0 {
  %5 = alloca i32, align 4
  %6 = alloca ptr, align 8
  %7 = alloca i32, align 4
  %8 = alloca i64, align 8
  %9 = alloca ptr, align 8
  store ptr %0, ptr %6, align 8, !tbaa !3
  store i32 %1, ptr %7, align 4, !tbaa !16
  store i64 %2, ptr %8, align 8, !tbaa !63
  store ptr %3, ptr %9, align 8, !tbaa !18
  %10 = load i32, ptr %7, align 4, !tbaa !16
  switch i32 %10, label %13 [
    i32 3, label %11
  ]

11:                                               ; preds = %4
  %12 = load ptr, ptr %9, align 8, !tbaa !18
  store i32 672, ptr %12, align 4, !tbaa !16
  store i32 1, ptr %5, align 4
  br label %14

13:                                               ; preds = %4
  store i32 -2, ptr %5, align 4
  br label %14

14:                                               ; preds = %13, %11
  %15 = load i32, ptr %5, align 4
  ret i32 %15
}